(lp0
V58d6d87a1756fc834d906a0a
p1
aV58d6d87a1756fc834d906a0b
p2
aV58d6d87a1756fc834d906a0c
p3
aV58d6d87b1756fc834d906a0d
p4
aV58d6d87b1756fc834d906a0e
p5
aV58d6d87b1756fc834d906a0f
p6
aV58d6d87b1756fc834d906a10
p7
aV58d6d87b1756fc834d906a11
p8
aV58d6d87b1756fc834d906a12
p9
aV58d6d87b1756fc834d906a13
p10
aV58d6d87b1756fc834d906a14
p11
aV58d6d87b1756fc834d906a15
p12
aV58d6d8a71756fc834d906a18
p13
aV58d6d8a71756fc834d906a19
p14
aV58d6d8a81756fc834d906a1a
p15
aV58d6d8a81756fc834d906a1b
p16
aV58d6d8a81756fc834d906a1c
p17
aV58d6d8a81756fc834d906a1d
p18
aV58d6d8a81756fc834d906a1e
p19
aV58d6d8a81756fc834d906a1f
p20
aV58d6d8a81756fc834d906a20
p21
aV58d6d8a81756fc834d906a21
p22
aV58d6d8a81756fc834d906a22
p23
aV58d6d8a81756fc834d906a23
p24
aV58d6d8d21756fc834d906a26
p25
aV58d6d8d21756fc834d906a27
p26
aV58d6d8d21756fc834d906a28
p27
aV58d6d8d21756fc834d906a29
p28
aV58d6d8d21756fc834d906a2a
p29
aV58d6d8d21756fc834d906a2b
p30
aV58d6d8d21756fc834d906a2c
p31
aV58d6d8d21756fc834d906a2d
p32
aV58d6d8d21756fc834d906a2e
p33
aV58d6d8d21756fc834d906a2f
p34
aV58d6d8d21756fc834d906a30
p35
aV58d6d8d21756fc834d906a31
p36
aV58d6d8e41756fc834d906a34
p37
aV58d6d8e41756fc834d906a35
p38
aV58d6d8e41756fc834d906a36
p39
aV58d6d8e41756fc834d906a37
p40
aV58d6d8e41756fc834d906a38
p41
aV58d6d8e41756fc834d906a39
p42
aV58d6d8e41756fc834d906a3a
p43
aV58d6d8e41756fc834d906a3b
p44
aV58d6d8e41756fc834d906a3c
p45
aV58d6d8e41756fc834d906a3d
p46
aV58d6d8e41756fc834d906a3e
p47
aV58d6d8e41756fc834d906a3f
p48
aV58d6d9321756fc834d906a42
p49
aV58d6d9321756fc834d906a43
p50
aV58d6d9321756fc834d906a44
p51
aV58d6d9331756fc834d906a45
p52
aV58d6d9331756fc834d906a46
p53
aV58d6d9331756fc834d906a47
p54
aV58d6d9331756fc834d906a48
p55
aV58d6d9331756fc834d906a49
p56
aV58d6d9331756fc834d906a4a
p57
aV58d6d9331756fc834d906a4b
p58
aV58d6d9331756fc834d906a4c
p59
aV58d6d9331756fc834d906a4d
p60
aV58d6d9331756fc834d906a4f
p61
aV58d6d9331756fc834d906a50
p62
aV58d6d9331756fc834d906a51
p63
aV58d6d9331756fc834d906a52
p64
aV58d6d9331756fc834d906a53
p65
aV58d6d9331756fc834d906a54
p66
aV58d6d9341756fc834d906a55
p67
aV58d6d9341756fc834d906a56
p68
aV58d6d9341756fc834d906a57
p69
aV58d6d9341756fc834d906a58
p70
aV58d6d9341756fc834d906a59
p71
aV58d6d9341756fc834d906a5a
p72
aV58d6d9341756fc834d906a5b
p73
aV58d6d9341756fc834d906a5c
p74
aV58d6d9341756fc834d906a5d
p75
aV58d6d9341756fc834d906a5e
p76
aV58d6d9341756fc834d906a5f
p77
aV58d6d9341756fc834d906a60
p78
aV58d6d9341756fc834d906a61
p79
aV58d6d9341756fc834d906a62
p80
aV58d6d9351756fc834d906a63
p81
aV58d6d9351756fc834d906a64
p82
aV58d6d9351756fc834d906a65
p83
aV58d6d9351756fc834d906a66
p84
aV58d6d9351756fc834d906a67
p85
aV58d6d9351756fc834d906a68
p86
aV58d6d9351756fc834d906a69
p87
aV58d6d9351756fc834d906a6a
p88
aV58d6d9351756fc834d906a6b
p89
aV58d6d9351756fc834d906a6c
p90
aV58d6d9351756fc834d906a6d
p91
aV58d6d9351756fc834d906a6e
p92
aV58d6d9351756fc834d906a6f
p93
aV58d6d9351756fc834d906a70
p94
aV58d6d9351756fc834d906a71
p95
aV58d6d9351756fc834d906a72
p96
aV58d6d9361756fc834d906a73
p97
aV58d6d9361756fc834d906a74
p98
aV58d6d9361756fc834d906a75
p99
aV58d6d9361756fc834d906a76
p100
aV58d6d9361756fc834d906a77
p101
aV58d6d9361756fc834d906a78
p102
aV58d6d9361756fc834d906a79
p103
aV58d6d9361756fc834d906a7a
p104
aV58d6d9361756fc834d906a7b
p105
aV58d6d9361756fc834d906a7c
p106
aV58d6d9361756fc834d906a7d
p107
aV58d6d9361756fc834d906a7e
p108
aV58d6d9361756fc834d906a7f
p109
aV58d6d9361756fc834d906a80
p110
aV58d6d9361756fc834d906a81
p111
aV58d6d9371756fc834d906a82
p112
aV58d6d9371756fc834d906a84
p113
aV58d6d9371756fc834d906a85
p114
aV58d6d9371756fc834d906a86
p115
aV58d6d9371756fc834d906a87
p116
aV58d6d9371756fc834d906a89
p117
aV58d6d9371756fc834d906a8a
p118
aV58d6d9371756fc834d906a8c
p119
aV58d6d9371756fc834d906a8d
p120
aV58d6d9371756fc834d906a8f
p121
aV58d714c01756fc834d906b51
p122
aV58d715b91756fc834d906b55
p123
a.